; ModuleID = '17/1282.c'
source_filename = "17/1282.c"
target datalayout = "e-m:e-p270:32:32-p271:32:32-p272:64:64-i64:64-f80:128-n8:16:32:64-S128"
target triple = "x86_64-pc-linux-gnu"

@.str = private unnamed_addr constant [3 x i8] c"%d\00", align 1
@.str.1 = private unnamed_addr constant [7 x i8] c"%s\0A%s\0A\00", align 1
@.str.2 = private unnamed_addr constant [4 x i8] c"%s\0A\00", align 1

; Function Attrs: noinline nounwind uwtable
define dso_local i32 @main() #0 {
  %1 = alloca i32, align 4
  %2 = alloca i32, align 4
  %3 = alloca i32, align 4
  %4 = alloca [101 x i8], align 16
  %5 = alloca [101 x i8], align 16
  %6 = alloca [101 x i8], align 16
  %7 = alloca i32, align 4
  %8 = alloca i32, align 4
  %9 = alloca i32, align 4
  %10 = alloca i32, align 4
  %11 = alloca i8, align 1
  store i32 0, i32* %1, align 4
  store i32 0, i32* %2, align 4
  %12 = call i32 (i8*, ...) @__isoc99_scanf(i8* getelementptr inbounds ([3 x i8], [3 x i8]* @.str, i64 0, i64 0), i32* %2)
  store i32 0, i32* %3, align 4
  store i32 0, i32* %7, align 4
  store i32 0, i32* %8, align 4
  store i32 0, i32* %9, align 4
  store i32 0, i32* %10, align 4
  store i8 110, i8* %11, align 1
  store i32 0, i32* %3, align 4
  br label %13

13:                                               ; preds = %175, %0
  %14 = load i32, i32* %3, align 4
  %15 = load i32, i32* %2, align 4
  %16 = icmp sle i32 %14, %15
  br i1 %16, label %17, label %178

17:                                               ; preds = %13
  store i32 0, i32* %7, align 4
  %18 = getelementptr inbounds [101 x i8], [101 x i8]* %4, i64 0, i64 0
  %19 = call i32 (i8*, ...) bitcast (i32 (...)* @gets to i32 (i8*, ...)*)(i8* %18)
  br label %20

20:                                               ; preds = %26, %17
  %21 = load i32, i32* %7, align 4
  %22 = sext i32 %21 to i64
  %23 = getelementptr inbounds [101 x i8], [101 x i8]* %4, i64 0, i64 %22
  %24 = load i8, i8* %23, align 1
  %25 = icmp ne i8 %24, 0
  br i1 %25, label %26, label %29

26:                                               ; preds = %20
  %27 = load i32, i32* %7, align 4
  %28 = add nsw i32 %27, 1
  store i32 %28, i32* %7, align 4
  br label %20

29:                                               ; preds = %20
  %30 = getelementptr inbounds [101 x i8], [101 x i8]* %5, i64 0, i64 0
  %31 = getelementptr inbounds [101 x i8], [101 x i8]* %4, i64 0, i64 0
  %32 = call i8* @strcpy(i8* %30, i8* %31) #4
  store i32 0, i32* %8, align 4
  br label %33

33:                                               ; preds = %71, %29
  %34 = load i32, i32* %8, align 4
  %35 = load i32, i32* %7, align 4
  %36 = icmp slt i32 %34, %35
  br i1 %36, label %37, label %74

37:                                               ; preds = %33
  %38 = load i32, i32* %8, align 4
  %39 = sext i32 %38 to i64
  %40 = getelementptr inbounds [101 x i8], [101 x i8]* %5, i64 0, i64 %39
  %41 = load i8, i8* %40, align 1
  %42 = sext i8 %41 to i32
  %43 = icmp ne i32 %42, 40
  br i1 %43, label %44, label %55

44:                                               ; preds = %37
  %45 = load i32, i32* %8, align 4
  %46 = sext i32 %45 to i64
  %47 = getelementptr inbounds [101 x i8], [101 x i8]* %5, i64 0, i64 %46
  %48 = load i8, i8* %47, align 1
  %49 = sext i8 %48 to i32
  %50 = icmp ne i32 %49, 41
  br i1 %50, label %51, label %55

51:                                               ; preds = %44
  %52 = load i32, i32* %8, align 4
  %53 = sext i32 %52 to i64
  %54 = getelementptr inbounds [101 x i8], [101 x i8]* %5, i64 0, i64 %53
  store i8 32, i8* %54, align 1
  br label %55

55:                                               ; preds = %51, %44, %37
  %56 = load i32, i32* %8, align 4
  %57 = sext i32 %56 to i64
  %58 = getelementptr inbounds [101 x i8], [101 x i8]* %4, i64 0, i64 %57
  %59 = load i8, i8* %58, align 1
  %60 = sext i8 %59 to i32
  %61 = icmp eq i32 %60, 40
  br i1 %61, label %69, label %62

62:                                               ; preds = %55
  %63 = load i32, i32* %8, align 4
  %64 = sext i32 %63 to i64
  %65 = getelementptr inbounds [101 x i8], [101 x i8]* %4, i64 0, i64 %64
  %66 = load i8, i8* %65, align 1
  %67 = sext i8 %66 to i32
  %68 = icmp eq i32 %67, 41
  br i1 %68, label %69, label %70

69:                                               ; preds = %62, %55
  store i8 121, i8* %11, align 1
  br label %70

70:                                               ; preds = %69, %62
  br label %71

71:                                               ; preds = %70
  %72 = load i32, i32* %8, align 4
  %73 = add nsw i32 %72, 1
  store i32 %73, i32* %8, align 4
  br label %33

74:                                               ; preds = %33
  %75 = load i8, i8* %11, align 1
  %76 = sext i8 %75 to i32
  %77 = icmp eq i32 %76, 110
  br i1 %77, label %78, label %79

78:                                               ; preds = %74
  br label %175

79:                                               ; preds = %74
  store i32 0, i32* %10, align 4
  br label %80

80:                                               ; preds = %125, %79
  %81 = load i32, i32* %10, align 4
  %82 = load i32, i32* %7, align 4
  %83 = sdiv i32 %82, 2
  %84 = icmp sle i32 %81, %83
  br i1 %84, label %85, label %128

85:                                               ; preds = %80
  store i8 110, i8* %11, align 1
  store i32 0, i32* %9, align 4
  store i32 0, i32* %8, align 4
  br label %86

86:                                               ; preds = %121, %85
  %87 = load i32, i32* %8, align 4
  %88 = load i32, i32* %7, align 4
  %89 = icmp slt i32 %87, %88
  br i1 %89, label %90, label %124

90:                                               ; preds = %86
  %91 = load i32, i32* %8, align 4
  %92 = sext i32 %91 to i64
  %93 = getelementptr inbounds [101 x i8], [101 x i8]* %5, i64 0, i64 %92
  %94 = load i8, i8* %93, align 1
  %95 = sext i8 %94 to i32
  %96 = icmp eq i32 %95, 40
  br i1 %96, label %97, label %99

97:                                               ; preds = %90
  %98 = load i32, i32* %8, align 4
  store i32 %98, i32* %9, align 4
  br label %99

99:                                               ; preds = %97, %90
  %100 = load i32, i32* %8, align 4
  %101 = sext i32 %100 to i64
  %102 = getelementptr inbounds [101 x i8], [101 x i8]* %5, i64 0, i64 %101
  %103 = load i8, i8* %102, align 1
  %104 = sext i8 %103 to i32
  %105 = icmp eq i32 %104, 41
  br i1 %105, label %106, label %120

106:                                              ; preds = %99
  %107 = load i32, i32* %9, align 4
  %108 = sext i32 %107 to i64
  %109 = getelementptr inbounds [101 x i8], [101 x i8]* %5, i64 0, i64 %108
  %110 = load i8, i8* %109, align 1
  %111 = sext i8 %110 to i32
  %112 = icmp eq i32 %111, 40
  br i1 %112, label %113, label %120

113:                                              ; preds = %106
  %114 = load i32, i32* %8, align 4
  %115 = sext i32 %114 to i64
  %116 = getelementptr inbounds [101 x i8], [101 x i8]* %5, i64 0, i64 %115
  store i8 32, i8* %116, align 1
  %117 = load i32, i32* %9, align 4
  %118 = sext i32 %117 to i64
  %119 = getelementptr inbounds [101 x i8], [101 x i8]* %5, i64 0, i64 %118
  store i8 32, i8* %119, align 1
  br label %120

120:                                              ; preds = %113, %106, %99
  br label %121

121:                                              ; preds = %120
  %122 = load i32, i32* %8, align 4
  %123 = add nsw i32 %122, 1
  store i32 %123, i32* %8, align 4
  br label %86

124:                                              ; preds = %86
  br label %125

125:                                              ; preds = %124
  %126 = load i32, i32* %10, align 4
  %127 = add nsw i32 %126, 1
  store i32 %127, i32* %10, align 4
  br label %80

128:                                              ; preds = %80
  %129 = getelementptr inbounds [101 x i8], [101 x i8]* %6, i64 0, i64 0
  %130 = getelementptr inbounds [101 x i8], [101 x i8]* %5, i64 0, i64 0
  %131 = call i8* @strcpy(i8* %129, i8* %130) #4
  store i32 0, i32* %8, align 4
  br label %132

132:                                              ; preds = %159, %128
  %133 = load i32, i32* %8, align 4
  %134 = load i32, i32* %7, align 4
  %135 = icmp slt i32 %133, %134
  br i1 %135, label %136, label %162

136:                                              ; preds = %132
  %137 = load i32, i32* %8, align 4
  %138 = sext i32 %137 to i64
  %139 = getelementptr inbounds [101 x i8], [101 x i8]* %5, i64 0, i64 %138
  %140 = load i8, i8* %139, align 1
  %141 = sext i8 %140 to i32
  %142 = icmp eq i32 %141, 40
  br i1 %142, label %143, label %147

143:                                              ; preds = %136
  %144 = load i32, i32* %8, align 4
  %145 = sext i32 %144 to i64
  %146 = getelementptr inbounds [101 x i8], [101 x i8]* %5, i64 0, i64 %145
  store i8 36, i8* %146, align 1
  br label %147

147:                                              ; preds = %143, %136
  %148 = load i32, i32* %8, align 4
  %149 = sext i32 %148 to i64
  %150 = getelementptr inbounds [101 x i8], [101 x i8]* %5, i64 0, i64 %149
  %151 = load i8, i8* %150, align 1
  %152 = sext i8 %151 to i32
  %153 = icmp eq i32 %152, 41
  br i1 %153, label %154, label %158

154:                                              ; preds = %147
  %155 = load i32, i32* %8, align 4
  %156 = sext i32 %155 to i64
  %157 = getelementptr inbounds [101 x i8], [101 x i8]* %5, i64 0, i64 %156
  store i8 63, i8* %157, align 1
  br label %158

158:                                              ; preds = %154, %147
  br label %159

159:                                              ; preds = %158
  %160 = load i32, i32* %8, align 4
  %161 = add nsw i32 %160, 1
  store i32 %161, i32* %8, align 4
  br label %132

162:                                              ; preds = %132
  %163 = getelementptr inbounds [101 x i8], [101 x i8]* %5, i64 0, i64 0
  %164 = getelementptr inbounds [101 x i8], [101 x i8]* %6, i64 0, i64 0
  %165 = call i32 @strcmp(i8* %163, i8* %164) #5
  %166 = icmp ne i32 %165, 0
  br i1 %166, label %167, label %171

167:                                              ; preds = %162
  %168 = getelementptr inbounds [101 x i8], [101 x i8]* %4, i64 0, i64 0
  %169 = getelementptr inbounds [101 x i8], [101 x i8]* %5, i64 0, i64 0
  %170 = call i32 (i8*, ...) @printf(i8* getelementptr inbounds ([7 x i8], [7 x i8]* @.str.1, i64 0, i64 0), i8* %168, i8* %169)
  br label %174

171:                                              ; preds = %162
  %172 = getelementptr inbounds [101 x i8], [101 x i8]* %4, i64 0, i64 0
  %173 = call i32 (i8*, ...) @printf(i8* getelementptr inbounds ([4 x i8], [4 x i8]* @.str.2, i64 0, i64 0), i8* %172)
  br label %174

174:                                              ; preds = %171, %167
  br label %175

175:                                              ; preds = %174, %78
  %176 = load i32, i32* %3, align 4
  %177 = add nsw i32 %176, 1
  store i32 %177, i32* %3, align 4
  br label %13

178:                                              ; preds = %13
  ret i32 0
}

declare dso_local i32 @__isoc99_scanf(i8*, ...) #1

declare dso_local i32 @gets(...) #1

; Function Attrs: nounwind
declare dso_local i8* @strcpy(i8*, i8*) #2

; Function Attrs: nounwind readonly
declare dso_local i32 @strcmp(i8*, i8*) #3

declare dso_local i32 @printf(i8*, ...) #1


!llvm.module.flags = !{!0}
!llvm.ident = !{!1}

!0 = !{i32 1, !"wchar_size", i32 4}
!1 = !{!"clang version 10.0.0-4ubuntu1 "}
